; Function Attrs: nounwind uwtable
define noalias nonnull ptr @l_Lean_MessageData_ofFormatWithInfosM___lambda__3(ptr noundef readnone captures(none) %0, ptr noundef %1) local_unnamed_addr #0 {
  %3 = load ptr, ptr @l_Lean_MessageData_ofFormatWithInfosM___lambda__3___closed__3, align 8, !tbaa !9
  tail call void @lean_inc_heartbeat() #6
  %4 = tail call noalias ptr @mi_malloc_small(i64 noundef 24) #6
  %5 = icmp eq ptr %4, null
  br i1 %5, label %6, label %lean_alloc_ctor.exit

6:                                                ; preds = %2
  tail call void @lean_internal_panic_out_of_memory() #7
  unreachable

lean_alloc_ctor.exit:                             ; preds = %2
  %7 = getelementptr inbounds nuw i8, ptr %4, i64 4
  store i32 1, ptr %4, align 4, !tbaa !4
  store i32 131096, ptr %7, align 4
  %8 = getelementptr inbounds nuw i8, ptr %4, i64 8
  store ptr %3, ptr %8, align 8, !tbaa !9
  %9 = getelementptr inbounds nuw i8, ptr %4, i64 16
  store ptr %1, ptr %9, align 8, !tbaa !9
  ret ptr %4
}